target datalayout = "e-m:e-p270:32:32-p271:32:32-p272:64:64-i64:64-i128:128-f80:128-n8:16:32:64-S128"
target triple = "x86_64-pc-linux-gnu"

@ff_crop_tab = external hidden constant [2304 x i8], align 16

; Function Attrs: nounwind uwtable
define internal void @avg_rv30_tpel8_v_lowpass(ptr noundef %0, ptr noundef %1, i32 noundef %2, i32 noundef %3, i32 noundef %4, i32 noundef %5) #3 {
  %7 = alloca ptr, align 8
  %8 = alloca ptr, align 8
  %9 = alloca i32, align 4
  %10 = alloca i32, align 4
  %11 = alloca i32, align 4
  %12 = alloca i32, align 4
  %13 = alloca i32, align 4
  %14 = alloca ptr, align 8
  %15 = alloca i32, align 4
  %16 = alloca i32, align 4
  %17 = alloca i32, align 4
  %18 = alloca i32, align 4
  %19 = alloca i32, align 4
  %20 = alloca i32, align 4
  %21 = alloca i32, align 4
  %22 = alloca i32, align 4
  %23 = alloca i32, align 4
  %24 = alloca i32, align 4
  %25 = alloca i32, align 4
  %26 = alloca i32, align 4
  store ptr %0, ptr %7, align 8, !tbaa !10
  store ptr %1, ptr %8, align 8, !tbaa !10
  store i32 %2, ptr %9, align 4, !tbaa !14
  store i32 %3, ptr %10, align 4, !tbaa !14
  store i32 %4, ptr %11, align 4, !tbaa !14
  store i32 %5, ptr %12, align 4, !tbaa !14
  call void @llvm.lifetime.start.p0(i64 4, ptr %13) #4
  store i32 8, ptr %13, align 4, !tbaa !14
  call void @llvm.lifetime.start.p0(i64 8, ptr %14) #4
  store ptr getelementptr inbounds (i8, ptr @ff_crop_tab, i64 1024), ptr %14, align 8, !tbaa !10
  call void @llvm.lifetime.start.p0(i64 4, ptr %15) #4
  store i32 0, ptr %15, align 4, !tbaa !14
  br label %27

27:                                               ; preds = %392, %6
  %28 = load i32, ptr %15, align 4, !tbaa !14
  %29 = icmp slt i32 %28, 8
  br i1 %29, label %30, label %395

30:                                               ; preds = %27
  call void @llvm.lifetime.start.p0(i64 4, ptr %16) #4
  %31 = load ptr, ptr %8, align 8, !tbaa !10
  %32 = load i32, ptr %10, align 4, !tbaa !14
  %33 = mul nsw i32 -1, %32
  %34 = sext i32 %33 to i64
  %35 = getelementptr inbounds i8, ptr %31, i64 %34
  %36 = load i8, ptr %35, align 1, !tbaa !16
  %37 = zext i8 %36 to i32
  store i32 %37, ptr %16, align 4, !tbaa !14
  call void @llvm.lifetime.start.p0(i64 4, ptr %17) #4
  %38 = load ptr, ptr %8, align 8, !tbaa !10
  %39 = load i32, ptr %10, align 4, !tbaa !14
  %40 = mul nsw i32 0, %39
  %41 = sext i32 %40 to i64
  %42 = getelementptr inbounds i8, ptr %38, i64 %41
  %43 = load i8, ptr %42, align 1, !tbaa !16
  %44 = zext i8 %43 to i32
  store i32 %44, ptr %17, align 4, !tbaa !14
  call void @llvm.lifetime.start.p0(i64 4, ptr %18) #4
  %45 = load ptr, ptr %8, align 8, !tbaa !10
  %46 = load i32, ptr %10, align 4, !tbaa !14
  %47 = mul nsw i32 1, %46
  %48 = sext i32 %47 to i64
  %49 = getelementptr inbounds i8, ptr %45, i64 %48
  %50 = load i8, ptr %49, align 1, !tbaa !16
  %51 = zext i8 %50 to i32
  store i32 %51, ptr %18, align 4, !tbaa !14
  call void @llvm.lifetime.start.p0(i64 4, ptr %19) #4
  %52 = load ptr, ptr %8, align 8, !tbaa !10
  %53 = load i32, ptr %10, align 4, !tbaa !14
  %54 = mul nsw i32 2, %53
  %55 = sext i32 %54 to i64
  %56 = getelementptr inbounds i8, ptr %52, i64 %55
  %57 = load i8, ptr %56, align 1, !tbaa !16
  %58 = zext i8 %57 to i32
  store i32 %58, ptr %19, align 4, !tbaa !14
  call void @llvm.lifetime.start.p0(i64 4, ptr %20) #4
  %59 = load ptr, ptr %8, align 8, !tbaa !10
  %60 = load i32, ptr %10, align 4, !tbaa !14
  %61 = mul nsw i32 3, %60
  %62 = sext i32 %61 to i64
  %63 = getelementptr inbounds i8, ptr %59, i64 %62
  %64 = load i8, ptr %63, align 1, !tbaa !16
  %65 = zext i8 %64 to i32
  store i32 %65, ptr %20, align 4, !tbaa !14
  call void @llvm.lifetime.start.p0(i64 4, ptr %21) #4
  %66 = load ptr, ptr %8, align 8, !tbaa !10
  %67 = load i32, ptr %10, align 4, !tbaa !14
  %68 = mul nsw i32 4, %67
  %69 = sext i32 %68 to i64
  %70 = getelementptr inbounds i8, ptr %66, i64 %69
  %71 = load i8, ptr %70, align 1, !tbaa !16
  %72 = zext i8 %71 to i32
  store i32 %72, ptr %21, align 4, !tbaa !14
  call void @llvm.lifetime.start.p0(i64 4, ptr %22) #4
  %73 = load ptr, ptr %8, align 8, !tbaa !10
  %74 = load i32, ptr %10, align 4, !tbaa !14
  %75 = mul nsw i32 5, %74
  %76 = sext i32 %75 to i64
  %77 = getelementptr inbounds i8, ptr %73, i64 %76
  %78 = load i8, ptr %77, align 1, !tbaa !16
  %79 = zext i8 %78 to i32
  store i32 %79, ptr %22, align 4, !tbaa !14
  call void @llvm.lifetime.start.p0(i64 4, ptr %23) #4
  %80 = load ptr, ptr %8, align 8, !tbaa !10
  %81 = load i32, ptr %10, align 4, !tbaa !14
  %82 = mul nsw i32 6, %81
  %83 = sext i32 %82 to i64
  %84 = getelementptr inbounds i8, ptr %80, i64 %83
  %85 = load i8, ptr %84, align 1, !tbaa !16
  %86 = zext i8 %85 to i32
  store i32 %86, ptr %23, align 4, !tbaa !14
  call void @llvm.lifetime.start.p0(i64 4, ptr %24) #4
  %87 = load ptr, ptr %8, align 8, !tbaa !10
  %88 = load i32, ptr %10, align 4, !tbaa !14
  %89 = mul nsw i32 7, %88
  %90 = sext i32 %89 to i64
  %91 = getelementptr inbounds i8, ptr %87, i64 %90
  %92 = load i8, ptr %91, align 1, !tbaa !16
  %93 = zext i8 %92 to i32
  store i32 %93, ptr %24, align 4, !tbaa !14
  call void @llvm.lifetime.start.p0(i64 4, ptr %25) #4
  %94 = load ptr, ptr %8, align 8, !tbaa !10
  %95 = load i32, ptr %10, align 4, !tbaa !14
  %96 = mul nsw i32 8, %95
  %97 = sext i32 %96 to i64
  %98 = getelementptr inbounds i8, ptr %94, i64 %97
  %99 = load i8, ptr %98, align 1, !tbaa !16
  %100 = zext i8 %99 to i32
  store i32 %100, ptr %25, align 4, !tbaa !14
  call void @llvm.lifetime.start.p0(i64 4, ptr %26) #4
  %101 = load ptr, ptr %8, align 8, !tbaa !10
  %102 = load i32, ptr %10, align 4, !tbaa !14
  %103 = mul nsw i32 9, %102
  %104 = sext i32 %103 to i64
  %105 = getelementptr inbounds i8, ptr %101, i64 %104
  %106 = load i8, ptr %105, align 1, !tbaa !16
  %107 = zext i8 %106 to i32
  store i32 %107, ptr %26, align 4, !tbaa !14
  %108 = load ptr, ptr %7, align 8, !tbaa !10
  %109 = load i32, ptr %9, align 4, !tbaa !14
  %110 = mul nsw i32 0, %109
  %111 = sext i32 %110 to i64
  %112 = getelementptr inbounds i8, ptr %108, i64 %111
  %113 = load i8, ptr %112, align 1, !tbaa !16
  %114 = zext i8 %113 to i32
  %115 = load ptr, ptr %14, align 8, !tbaa !10
  %116 = load i32, ptr %16, align 4, !tbaa !14
  %117 = load i32, ptr %19, align 4, !tbaa !14
  %118 = add nsw i32 %116, %117
  %119 = sub nsw i32 0, %118
  %120 = load i32, ptr %17, align 4, !tbaa !14
  %121 = load i32, ptr %11, align 4, !tbaa !14
  %122 = mul nsw i32 %120, %121
  %123 = add nsw i32 %119, %122
  %124 = load i32, ptr %18, align 4, !tbaa !14
  %125 = load i32, ptr %12, align 4, !tbaa !14
  %126 = mul nsw i32 %124, %125
  %127 = add nsw i32 %123, %126
  %128 = add nsw i32 %127, 8
  %129 = ashr i32 %128, 4
  %130 = sext i32 %129 to i64
  %131 = getelementptr inbounds i8, ptr %115, i64 %130
  %132 = load i8, ptr %131, align 1, !tbaa !16
  %133 = zext i8 %132 to i32
  %134 = add nsw i32 %114, %133
  %135 = add nsw i32 %134, 1
  %136 = ashr i32 %135, 1
  %137 = trunc i32 %136 to i8
  %138 = load ptr, ptr %7, align 8, !tbaa !10
  %139 = load i32, ptr %9, align 4, !tbaa !14
  %140 = mul nsw i32 0, %139
  %141 = sext i32 %140 to i64
  %142 = getelementptr inbounds i8, ptr %138, i64 %141
  store i8 %137, ptr %142, align 1, !tbaa !16
  %143 = load ptr, ptr %7, align 8, !tbaa !10
  %144 = load i32, ptr %9, align 4, !tbaa !14
  %145 = mul nsw i32 1, %144
  %146 = sext i32 %145 to i64
  %147 = getelementptr inbounds i8, ptr %143, i64 %146
  %148 = load i8, ptr %147, align 1, !tbaa !16
  %149 = zext i8 %148 to i32
  %150 = load ptr, ptr %14, align 8, !tbaa !10
  %151 = load i32, ptr %17, align 4, !tbaa !14
  %152 = load i32, ptr %20, align 4, !tbaa !14
  %153 = add nsw i32 %151, %152
  %154 = sub nsw i32 0, %153
  %155 = load i32, ptr %18, align 4, !tbaa !14
  %156 = load i32, ptr %11, align 4, !tbaa !14
  %157 = mul nsw i32 %155, %156
  %158 = add nsw i32 %154, %157
  %159 = load i32, ptr %19, align 4, !tbaa !14
  %160 = load i32, ptr %12, align 4, !tbaa !14
  %161 = mul nsw i32 %159, %160
  %162 = add nsw i32 %158, %161
  %163 = add nsw i32 %162, 8
  %164 = ashr i32 %163, 4
  %165 = sext i32 %164 to i64
  %166 = getelementptr inbounds i8, ptr %150, i64 %165
  %167 = load i8, ptr %166, align 1, !tbaa !16
  %168 = zext i8 %167 to i32
  %169 = add nsw i32 %149, %168
  %170 = add nsw i32 %169, 1
  %171 = ashr i32 %170, 1
  %172 = trunc i32 %171 to i8
  %173 = load ptr, ptr %7, align 8, !tbaa !10
  %174 = load i32, ptr %9, align 4, !tbaa !14
  %175 = mul nsw i32 1, %174
  %176 = sext i32 %175 to i64
  %177 = getelementptr inbounds i8, ptr %173, i64 %176
  store i8 %172, ptr %177, align 1, !tbaa !16
  %178 = load ptr, ptr %7, align 8, !tbaa !10
  %179 = load i32, ptr %9, align 4, !tbaa !14
  %180 = mul nsw i32 2, %179
  %181 = sext i32 %180 to i64
  %182 = getelementptr inbounds i8, ptr %178, i64 %181
  %183 = load i8, ptr %182, align 1, !tbaa !16
  %184 = zext i8 %183 to i32
  %185 = load ptr, ptr %14, align 8, !tbaa !10
  %186 = load i32, ptr %18, align 4, !tbaa !14
  %187 = load i32, ptr %21, align 4, !tbaa !14
  %188 = add nsw i32 %186, %187
  %189 = sub nsw i32 0, %188
  %190 = load i32, ptr %19, align 4, !tbaa !14
  %191 = load i32, ptr %11, align 4, !tbaa !14
  %192 = mul nsw i32 %190, %191
  %193 = add nsw i32 %189, %192
  %194 = load i32, ptr %20, align 4, !tbaa !14
  %195 = load i32, ptr %12, align 4, !tbaa !14
  %196 = mul nsw i32 %194, %195
  %197 = add nsw i32 %193, %196
  %198 = add nsw i32 %197, 8
  %199 = ashr i32 %198, 4
  %200 = sext i32 %199 to i64
  %201 = getelementptr inbounds i8, ptr %185, i64 %200
  %202 = load i8, ptr %201, align 1, !tbaa !16
  %203 = zext i8 %202 to i32
  %204 = add nsw i32 %184, %203
  %205 = add nsw i32 %204, 1
  %206 = ashr i32 %205, 1
  %207 = trunc i32 %206 to i8
  %208 = load ptr, ptr %7, align 8, !tbaa !10
  %209 = load i32, ptr %9, align 4, !tbaa !14
  %210 = mul nsw i32 2, %209
  %211 = sext i32 %210 to i64
  %212 = getelementptr inbounds i8, ptr %208, i64 %211
  store i8 %207, ptr %212, align 1, !tbaa !16
  %213 = load ptr, ptr %7, align 8, !tbaa !10
  %214 = load i32, ptr %9, align 4, !tbaa !14
  %215 = mul nsw i32 3, %214
  %216 = sext i32 %215 to i64
  %217 = getelementptr inbounds i8, ptr %213, i64 %216
  %218 = load i8, ptr %217, align 1, !tbaa !16
  %219 = zext i8 %218 to i32
  %220 = load ptr, ptr %14, align 8, !tbaa !10
  %221 = load i32, ptr %19, align 4, !tbaa !14
  %222 = load i32, ptr %22, align 4, !tbaa !14
  %223 = add nsw i32 %221, %222
  %224 = sub nsw i32 0, %223
  %225 = load i32, ptr %20, align 4, !tbaa !14
  %226 = load i32, ptr %11, align 4, !tbaa !14
  %227 = mul nsw i32 %225, %226
  %228 = add nsw i32 %224, %227
  %229 = load i32, ptr %21, align 4, !tbaa !14
  %230 = load i32, ptr %12, align 4, !tbaa !14
  %231 = mul nsw i32 %229, %230
  %232 = add nsw i32 %228, %231
  %233 = add nsw i32 %232, 8
  %234 = ashr i32 %233, 4
  %235 = sext i32 %234 to i64
  %236 = getelementptr inbounds i8, ptr %220, i64 %235
  %237 = load i8, ptr %236, align 1, !tbaa !16
  %238 = zext i8 %237 to i32
  %239 = add nsw i32 %219, %238
  %240 = add nsw i32 %239, 1
  %241 = ashr i32 %240, 1
  %242 = trunc i32 %241 to i8
  %243 = load ptr, ptr %7, align 8, !tbaa !10
  %244 = load i32, ptr %9, align 4, !tbaa !14
  %245 = mul nsw i32 3, %244
  %246 = sext i32 %245 to i64
  %247 = getelementptr inbounds i8, ptr %243, i64 %246
  store i8 %242, ptr %247, align 1, !tbaa !16
  %248 = load ptr, ptr %7, align 8, !tbaa !10
  %249 = load i32, ptr %9, align 4, !tbaa !14
  %250 = mul nsw i32 4, %249
  %251 = sext i32 %250 to i64
  %252 = getelementptr inbounds i8, ptr %248, i64 %251
  %253 = load i8, ptr %252, align 1, !tbaa !16
  %254 = zext i8 %253 to i32
  %255 = load ptr, ptr %14, align 8, !tbaa !10
  %256 = load i32, ptr %20, align 4, !tbaa !14
  %257 = load i32, ptr %23, align 4, !tbaa !14
  %258 = add nsw i32 %256, %257
  %259 = sub nsw i32 0, %258
  %260 = load i32, ptr %21, align 4, !tbaa !14
  %261 = load i32, ptr %11, align 4, !tbaa !14
  %262 = mul nsw i32 %260, %261
  %263 = add nsw i32 %259, %262
  %264 = load i32, ptr %22, align 4, !tbaa !14
  %265 = load i32, ptr %12, align 4, !tbaa !14
  %266 = mul nsw i32 %264, %265
  %267 = add nsw i32 %263, %266
  %268 = add nsw i32 %267, 8
  %269 = ashr i32 %268, 4
  %270 = sext i32 %269 to i64
  %271 = getelementptr inbounds i8, ptr %255, i64 %270
  %272 = load i8, ptr %271, align 1, !tbaa !16
  %273 = zext i8 %272 to i32
  %274 = add nsw i32 %254, %273
  %275 = add nsw i32 %274, 1
  %276 = ashr i32 %275, 1
  %277 = trunc i32 %276 to i8
  %278 = load ptr, ptr %7, align 8, !tbaa !10
  %279 = load i32, ptr %9, align 4, !tbaa !14
  %280 = mul nsw i32 4, %279
  %281 = sext i32 %280 to i64
  %282 = getelementptr inbounds i8, ptr %278, i64 %281
  store i8 %277, ptr %282, align 1, !tbaa !16
  %283 = load ptr, ptr %7, align 8, !tbaa !10
  %284 = load i32, ptr %9, align 4, !tbaa !14
  %285 = mul nsw i32 5, %284
  %286 = sext i32 %285 to i64
  %287 = getelementptr inbounds i8, ptr %283, i64 %286
  %288 = load i8, ptr %287, align 1, !tbaa !16
  %289 = zext i8 %288 to i32
  %290 = load ptr, ptr %14, align 8, !tbaa !10
  %291 = load i32, ptr %21, align 4, !tbaa !14
  %292 = load i32, ptr %24, align 4, !tbaa !14
  %293 = add nsw i32 %291, %292
  %294 = sub nsw i32 0, %293
  %295 = load i32, ptr %22, align 4, !tbaa !14
  %296 = load i32, ptr %11, align 4, !tbaa !14
  %297 = mul nsw i32 %295, %296
  %298 = add nsw i32 %294, %297
  %299 = load i32, ptr %23, align 4, !tbaa !14
  %300 = load i32, ptr %12, align 4, !tbaa !14
  %301 = mul nsw i32 %299, %300
  %302 = add nsw i32 %298, %301
  %303 = add nsw i32 %302, 8
  %304 = ashr i32 %303, 4
  %305 = sext i32 %304 to i64
  %306 = getelementptr inbounds i8, ptr %290, i64 %305
  %307 = load i8, ptr %306, align 1, !tbaa !16
  %308 = zext i8 %307 to i32
  %309 = add nsw i32 %289, %308
  %310 = add nsw i32 %309, 1
  %311 = ashr i32 %310, 1
  %312 = trunc i32 %311 to i8
  %313 = load ptr, ptr %7, align 8, !tbaa !10
  %314 = load i32, ptr %9, align 4, !tbaa !14
  %315 = mul nsw i32 5, %314
  %316 = sext i32 %315 to i64
  %317 = getelementptr inbounds i8, ptr %313, i64 %316
  store i8 %312, ptr %317, align 1, !tbaa !16
  %318 = load ptr, ptr %7, align 8, !tbaa !10
  %319 = load i32, ptr %9, align 4, !tbaa !14
  %320 = mul nsw i32 6, %319
  %321 = sext i32 %320 to i64
  %322 = getelementptr inbounds i8, ptr %318, i64 %321
  %323 = load i8, ptr %322, align 1, !tbaa !16
  %324 = zext i8 %323 to i32
  %325 = load ptr, ptr %14, align 8, !tbaa !10
  %326 = load i32, ptr %22, align 4, !tbaa !14
  %327 = load i32, ptr %25, align 4, !tbaa !14
  %328 = add nsw i32 %326, %327
  %329 = sub nsw i32 0, %328
  %330 = load i32, ptr %23, align 4, !tbaa !14
  %331 = load i32, ptr %11, align 4, !tbaa !14
  %332 = mul nsw i32 %330, %331
  %333 = add nsw i32 %329, %332
  %334 = load i32, ptr %24, align 4, !tbaa !14
  %335 = load i32, ptr %12, align 4, !tbaa !14
  %336 = mul nsw i32 %334, %335
  %337 = add nsw i32 %333, %336
  %338 = add nsw i32 %337, 8
  %339 = ashr i32 %338, 4
  %340 = sext i32 %339 to i64
  %341 = getelementptr inbounds i8, ptr %325, i64 %340
  %342 = load i8, ptr %341, align 1, !tbaa !16
  %343 = zext i8 %342 to i32
  %344 = add nsw i32 %324, %343
  %345 = add nsw i32 %344, 1
  %346 = ashr i32 %345, 1
  %347 = trunc i32 %346 to i8
  %348 = load ptr, ptr %7, align 8, !tbaa !10
  %349 = load i32, ptr %9, align 4, !tbaa !14
  %350 = mul nsw i32 6, %349
  %351 = sext i32 %350 to i64
  %352 = getelementptr inbounds i8, ptr %348, i64 %351
  store i8 %347, ptr %352, align 1, !tbaa !16
  %353 = load ptr, ptr %7, align 8, !tbaa !10
  %354 = load i32, ptr %9, align 4, !tbaa !14
  %355 = mul nsw i32 7, %354
  %356 = sext i32 %355 to i64
  %357 = getelementptr inbounds i8, ptr %353, i64 %356
  %358 = load i8, ptr %357, align 1, !tbaa !16
  %359 = zext i8 %358 to i32
  %360 = load ptr, ptr %14, align 8, !tbaa !10
  %361 = load i32, ptr %23, align 4, !tbaa !14
  %362 = load i32, ptr %26, align 4, !tbaa !14
  %363 = add nsw i32 %361, %362
  %364 = sub nsw i32 0, %363
  %365 = load i32, ptr %24, align 4, !tbaa !14
  %366 = load i32, ptr %11, align 4, !tbaa !14
  %367 = mul nsw i32 %365, %366
  %368 = add nsw i32 %364, %367
  %369 = load i32, ptr %25, align 4, !tbaa !14
  %370 = load i32, ptr %12, align 4, !tbaa !14
  %371 = mul nsw i32 %369, %370
  %372 = add nsw i32 %368, %371
  %373 = add nsw i32 %372, 8
  %374 = ashr i32 %373, 4
  %375 = sext i32 %374 to i64
  %376 = getelementptr inbounds i8, ptr %360, i64 %375
  %377 = load i8, ptr %376, align 1, !tbaa !16
  %378 = zext i8 %377 to i32
  %379 = add nsw i32 %359, %378
  %380 = add nsw i32 %379, 1
  %381 = ashr i32 %380, 1
  %382 = trunc i32 %381 to i8
  %383 = load ptr, ptr %7, align 8, !tbaa !10
  %384 = load i32, ptr %9, align 4, !tbaa !14
  %385 = mul nsw i32 7, %384
  %386 = sext i32 %385 to i64
  %387 = getelementptr inbounds i8, ptr %383, i64 %386
  store i8 %382, ptr %387, align 1, !tbaa !16
  %388 = load ptr, ptr %7, align 8, !tbaa !10
  %389 = getelementptr inbounds nuw i8, ptr %388, i32 1
  store ptr %389, ptr %7, align 8, !tbaa !10
  %390 = load ptr, ptr %8, align 8, !tbaa !10
  %391 = getelementptr inbounds nuw i8, ptr %390, i32 1
  store ptr %391, ptr %8, align 8, !tbaa !10
  call void @llvm.lifetime.end.p0(i64 4, ptr %26) #4
  call void @llvm.lifetime.end.p0(i64 4, ptr %25) #4
  call void @llvm.lifetime.end.p0(i64 4, ptr %24) #4
  call void @llvm.lifetime.end.p0(i64 4, ptr %23) #4
  call void @llvm.lifetime.end.p0(i64 4, ptr %22) #4
  call void @llvm.lifetime.end.p0(i64 4, ptr %21) #4
  call void @llvm.lifetime.end.p0(i64 4, ptr %20) #4
  call void @llvm.lifetime.end.p0(i64 4, ptr %19) #4
  call void @llvm.lifetime.end.p0(i64 4, ptr %18) #4
  call void @llvm.lifetime.end.p0(i64 4, ptr %17) #4
  call void @llvm.lifetime.end.p0(i64 4, ptr %16) #4
  br label %392

392:                                              ; preds = %30
  %393 = load i32, ptr %15, align 4, !tbaa !14
  %394 = add nsw i32 %393, 1
  store i32 %394, ptr %15, align 4, !tbaa !14
  br label %27, !llvm.loop !29

395:                                              ; preds = %27
  call void @llvm.lifetime.end.p0(i64 4, ptr %15) #4
  call void @llvm.lifetime.end.p0(i64 8, ptr %14) #4
  call void @llvm.lifetime.end.p0(i64 4, ptr %13) #4
  ret void
}