; Function Attrs: nofree norecurse nosync nounwind memory(argmem: readwrite) uwtable
define internal fastcc void @avg_rv30_tpel8_v_lowpass(ptr noundef captures(none) %0, ptr noundef readonly captures(none) %1, i32 noundef %2, i32 noundef %3, i32 noundef range(i32 6, 13) %4, i32 noundef range(i32 6, 13) %5) unnamed_addr #3 {
  %7 = sub nsw i32 0, %3
  %8 = sext i32 %7 to i64
  %9 = sext i32 %3 to i64
  %10 = shl nsw i32 %3, 1
  %11 = sext i32 %10 to i64
  %12 = mul nsw i32 %3, 3
  %13 = sext i32 %12 to i64
  %14 = shl nsw i32 %3, 2
  %15 = sext i32 %14 to i64
  %16 = mul nsw i32 %3, 5
  %17 = sext i32 %16 to i64
  %18 = mul nsw i32 %3, 6
  %19 = sext i32 %18 to i64
  %20 = mul nsw i32 %3, 7
  %21 = sext i32 %20 to i64
  %22 = shl nsw i32 %3, 3
  %23 = sext i32 %22 to i64
  %24 = mul nsw i32 %3, 9
  %25 = sext i32 %24 to i64
  %26 = sext i32 %2 to i64
  %27 = shl nsw i32 %2, 1
  %28 = sext i32 %27 to i64
  %29 = mul nsw i32 %2, 3
  %30 = sext i32 %29 to i64
  %31 = shl nsw i32 %2, 2
  %32 = sext i32 %31 to i64
  %33 = mul nsw i32 %2, 5
  %34 = sext i32 %33 to i64
  %35 = mul nsw i32 %2, 6
  %36 = sext i32 %35 to i64
  %37 = mul nsw i32 %2, 7
  %38 = sext i32 %37 to i64
  br label %39

39:                                               ; preds = %6, %39
  %.0135 = phi ptr [ %0, %6 ], [ %215, %39 ]
  %.0113134 = phi ptr [ %1, %6 ], [ %216, %39 ]
  %.0114133 = phi i32 [ 0, %6 ], [ %217, %39 ]
  %40 = getelementptr inbounds i8, ptr %.0113134, i64 %8
  %41 = load i8, ptr %40, align 1, !tbaa !8
  %42 = zext i8 %41 to i32
  %43 = load i8, ptr %.0113134, align 1, !tbaa !8
  %44 = zext i8 %43 to i32
  %45 = getelementptr inbounds i8, ptr %.0113134, i64 %9
  %46 = load i8, ptr %45, align 1, !tbaa !8
  %47 = zext i8 %46 to i32
  %48 = getelementptr inbounds i8, ptr %.0113134, i64 %11
  %49 = load i8, ptr %48, align 1, !tbaa !8
  %50 = zext i8 %49 to i32
  %51 = getelementptr inbounds i8, ptr %.0113134, i64 %13
  %52 = load i8, ptr %51, align 1, !tbaa !8
  %53 = zext i8 %52 to i32
  %54 = getelementptr inbounds i8, ptr %.0113134, i64 %15
  %55 = load i8, ptr %54, align 1, !tbaa !8
  %56 = zext i8 %55 to i32
  %57 = getelementptr inbounds i8, ptr %.0113134, i64 %17
  %58 = load i8, ptr %57, align 1, !tbaa !8
  %59 = zext i8 %58 to i32
  %60 = getelementptr inbounds i8, ptr %.0113134, i64 %19
  %61 = load i8, ptr %60, align 1, !tbaa !8
  %62 = zext i8 %61 to i32
  %63 = getelementptr inbounds i8, ptr %.0113134, i64 %21
  %64 = load i8, ptr %63, align 1, !tbaa !8
  %65 = zext i8 %64 to i32
  %66 = getelementptr inbounds i8, ptr %.0113134, i64 %23
  %67 = load i8, ptr %66, align 1, !tbaa !8
  %68 = zext i8 %67 to i32
  %69 = getelementptr inbounds i8, ptr %.0113134, i64 %25
  %70 = load i8, ptr %69, align 1, !tbaa !8
  %71 = zext i8 %70 to i32
  %72 = load i8, ptr %.0135, align 1, !tbaa !8
  %73 = zext i8 %72 to i16
  %74 = mul nuw nsw i32 %4, %44
  %75 = mul nuw nsw i32 %5, %47
  %76 = add nuw nsw i32 %74, 8
  %77 = add nuw nsw i32 %42, %50
  %78 = sub nsw i32 %76, %77
  %79 = add nsw i32 %78, %75
  %80 = ashr i32 %79, 4
  %81 = sext i32 %80 to i64
  %82 = getelementptr inbounds i8, ptr getelementptr inbounds nuw (i8, ptr @ff_crop_tab, i64 1024), i64 %81
  %83 = load i8, ptr %82, align 1, !tbaa !8
  %84 = zext i8 %83 to i16
  %85 = add nuw nsw i16 %73, 1
  %86 = add nuw nsw i16 %85, %84
  %87 = lshr i16 %86, 1
  %88 = trunc nuw i16 %87 to i8
  store i8 %88, ptr %.0135, align 1, !tbaa !8
  %89 = getelementptr inbounds i8, ptr %.0135, i64 %26
  %90 = load i8, ptr %89, align 1, !tbaa !8
  %91 = zext i8 %90 to i16
  %92 = mul nuw nsw i32 %4, %47
  %93 = mul nuw nsw i32 %5, %50
  %94 = add nuw nsw i32 %92, 8
  %95 = add nuw nsw i32 %44, %53
  %96 = sub nsw i32 %94, %95
  %97 = add nsw i32 %96, %93
  %98 = ashr i32 %97, 4
  %99 = sext i32 %98 to i64
  %100 = getelementptr inbounds i8, ptr getelementptr inbounds nuw (i8, ptr @ff_crop_tab, i64 1024), i64 %99
  %101 = load i8, ptr %100, align 1, !tbaa !8
  %102 = zext i8 %101 to i16
  %103 = add nuw nsw i16 %91, 1
  %104 = add nuw nsw i16 %103, %102
  %105 = lshr i16 %104, 1
  %106 = trunc nuw i16 %105 to i8
  store i8 %106, ptr %89, align 1, !tbaa !8
  %107 = getelementptr inbounds i8, ptr %.0135, i64 %28
  %108 = load i8, ptr %107, align 1, !tbaa !8
  %109 = zext i8 %108 to i16
  %110 = mul nuw nsw i32 %4, %50
  %111 = mul nuw nsw i32 %5, %53
  %112 = add nuw nsw i32 %110, 8
  %113 = add nuw nsw i32 %47, %56
  %114 = sub nsw i32 %112, %113
  %115 = add nsw i32 %114, %111
  %116 = ashr i32 %115, 4
  %117 = sext i32 %116 to i64
  %118 = getelementptr inbounds i8, ptr getelementptr inbounds nuw (i8, ptr @ff_crop_tab, i64 1024), i64 %117
  %119 = load i8, ptr %118, align 1, !tbaa !8
  %120 = zext i8 %119 to i16
  %121 = add nuw nsw i16 %109, 1
  %122 = add nuw nsw i16 %121, %120
  %123 = lshr i16 %122, 1
  %124 = trunc nuw i16 %123 to i8
  store i8 %124, ptr %107, align 1, !tbaa !8
  %125 = getelementptr inbounds i8, ptr %.0135, i64 %30
  %126 = load i8, ptr %125, align 1, !tbaa !8
  %127 = zext i8 %126 to i16
  %128 = mul nuw nsw i32 %4, %53
  %129 = mul nuw nsw i32 %5, %56
  %130 = add nuw nsw i32 %128, 8
  %131 = add nuw nsw i32 %50, %59
  %132 = sub nsw i32 %130, %131
  %133 = add nsw i32 %132, %129
  %134 = ashr i32 %133, 4
  %135 = sext i32 %134 to i64
  %136 = getelementptr inbounds i8, ptr getelementptr inbounds nuw (i8, ptr @ff_crop_tab, i64 1024), i64 %135
  %137 = load i8, ptr %136, align 1, !tbaa !8
  %138 = zext i8 %137 to i16
  %139 = add nuw nsw i16 %127, 1
  %140 = add nuw nsw i16 %139, %138
  %141 = lshr i16 %140, 1
  %142 = trunc nuw i16 %141 to i8
  store i8 %142, ptr %125, align 1, !tbaa !8
  %143 = getelementptr inbounds i8, ptr %.0135, i64 %32
  %144 = load i8, ptr %143, align 1, !tbaa !8
  %145 = zext i8 %144 to i16
  %146 = mul nuw nsw i32 %4, %56
  %147 = mul nuw nsw i32 %5, %59
  %148 = add nuw nsw i32 %146, 8
  %149 = add nuw nsw i32 %53, %62
  %150 = sub nsw i32 %148, %149
  %151 = add nsw i32 %150, %147
  %152 = ashr i32 %151, 4
  %153 = sext i32 %152 to i64
  %154 = getelementptr inbounds i8, ptr getelementptr inbounds nuw (i8, ptr @ff_crop_tab, i64 1024), i64 %153
  %155 = load i8, ptr %154, align 1, !tbaa !8
  %156 = zext i8 %155 to i16
  %157 = add nuw nsw i16 %145, 1
  %158 = add nuw nsw i16 %157, %156
  %159 = lshr i16 %158, 1
  %160 = trunc nuw i16 %159 to i8
  store i8 %160, ptr %143, align 1, !tbaa !8
  %161 = getelementptr inbounds i8, ptr %.0135, i64 %34
  %162 = load i8, ptr %161, align 1, !tbaa !8
  %163 = zext i8 %162 to i16
  %164 = mul nuw nsw i32 %4, %59
  %165 = mul nuw nsw i32 %5, %62
  %166 = add nuw nsw i32 %164, 8
  %167 = add nuw nsw i32 %56, %65
  %168 = sub nsw i32 %166, %167
  %169 = add nsw i32 %168, %165
  %170 = ashr i32 %169, 4
  %171 = sext i32 %170 to i64
  %172 = getelementptr inbounds i8, ptr getelementptr inbounds nuw (i8, ptr @ff_crop_tab, i64 1024), i64 %171
  %173 = load i8, ptr %172, align 1, !tbaa !8
  %174 = zext i8 %173 to i16
  %175 = add nuw nsw i16 %163, 1
  %176 = add nuw nsw i16 %175, %174
  %177 = lshr i16 %176, 1
  %178 = trunc nuw i16 %177 to i8
  store i8 %178, ptr %161, align 1, !tbaa !8
  %179 = getelementptr inbounds i8, ptr %.0135, i64 %36
  %180 = load i8, ptr %179, align 1, !tbaa !8
  %181 = zext i8 %180 to i16
  %182 = mul nuw nsw i32 %4, %62
  %183 = mul nuw nsw i32 %5, %65
  %184 = add nuw nsw i32 %182, 8
  %185 = add nuw nsw i32 %59, %68
  %186 = sub nsw i32 %184, %185
  %187 = add nsw i32 %186, %183
  %188 = ashr i32 %187, 4
  %189 = sext i32 %188 to i64
  %190 = getelementptr inbounds i8, ptr getelementptr inbounds nuw (i8, ptr @ff_crop_tab, i64 1024), i64 %189
  %191 = load i8, ptr %190, align 1, !tbaa !8
  %192 = zext i8 %191 to i16
  %193 = add nuw nsw i16 %181, 1
  %194 = add nuw nsw i16 %193, %192
  %195 = lshr i16 %194, 1
  %196 = trunc nuw i16 %195 to i8
  store i8 %196, ptr %179, align 1, !tbaa !8
  %197 = getelementptr inbounds i8, ptr %.0135, i64 %38
  %198 = load i8, ptr %197, align 1, !tbaa !8
  %199 = zext i8 %198 to i16
  %200 = mul nuw nsw i32 %4, %65
  %201 = mul nuw nsw i32 %5, %68
  %202 = add nuw nsw i32 %200, 8
  %203 = add nuw nsw i32 %62, %71
  %204 = sub nsw i32 %202, %203
  %205 = add nsw i32 %204, %201
  %206 = ashr i32 %205, 4
  %207 = sext i32 %206 to i64
  %208 = getelementptr inbounds i8, ptr getelementptr inbounds nuw (i8, ptr @ff_crop_tab, i64 1024), i64 %207
  %209 = load i8, ptr %208, align 1, !tbaa !8
  %210 = zext i8 %209 to i16
  %211 = add nuw nsw i16 %199, 1
  %212 = add nuw nsw i16 %211, %210
  %213 = lshr i16 %212, 1
  %214 = trunc nuw i16 %213 to i8
  store i8 %214, ptr %197, align 1, !tbaa !8
  %215 = getelementptr inbounds nuw i8, ptr %.0135, i64 1
  %216 = getelementptr inbounds nuw i8, ptr %.0113134, i64 1
  %217 = add nuw nsw i32 %.0114133, 1
  %exitcond.not = icmp eq i32 %217, 8
  br i1 %exitcond.not, label %218, label %39, !llvm.loop !29

218:                                              ; preds = %39
  ret void
}